target datalayout = "e-m:e-p270:32:32-p271:32:32-p272:64:64-i64:64-i128:128-f80:128-n8:16:32:64-S128"
target triple = "x86_64-pc-linux-gnu"

%struct.formnode = type { i16, i16, i16, i32, i32, i32, i32, i16, i16, i16, i32, ptr, ptr, ptr, ptr, ptr, ptr, ptr, ptr, ptr, ptr, ptr }
%struct.fieldnode = type { i16, i16, i16, i16, i16, i32, i32, i32, i32, i16, i16, i16, i16, i32, i32, i32, i32, ptr, ptr, ptr, ptr, ptr, ptr, ptr, ptr }

; Function Attrs: nounwind uwtable
define internal void @Adjust_Cursor_Position(ptr noundef %0, ptr noundef %1) #0 {
  %3 = alloca ptr, align 8
  %4 = alloca ptr, align 8
  %5 = alloca ptr, align 8
  %6 = alloca i32, align 4
  store ptr %0, ptr %3, align 8, !tbaa !4
  store ptr %1, ptr %4, align 8, !tbaa !55
  call void @llvm.lifetime.start.p0(i64 8, ptr %5) #9
  call void @llvm.lifetime.start.p0(i64 4, ptr %6) #9
  %7 = load ptr, ptr %3, align 8, !tbaa !4
  %8 = getelementptr inbounds nuw %struct.formnode, ptr %7, i32 0, i32 15
  %9 = load ptr, ptr %8, align 8, !tbaa !16
  store ptr %9, ptr %5, align 8, !tbaa !17
  %10 = load ptr, ptr %4, align 8, !tbaa !55
  %11 = load ptr, ptr %5, align 8, !tbaa !17
  %12 = getelementptr inbounds nuw %struct.fieldnode, ptr %11, i32 0, i32 23
  %13 = load ptr, ptr %12, align 8, !tbaa !54
  %14 = ptrtoint ptr %10 to i64
  %15 = ptrtoint ptr %13 to i64
  %16 = sub i64 %14, %15
  %17 = trunc i64 %16 to i32
  store i32 %17, ptr %6, align 4, !tbaa !35
  %18 = load i32, ptr %6, align 4, !tbaa !35
  %19 = load ptr, ptr %5, align 8, !tbaa !17
  %20 = getelementptr inbounds nuw %struct.fieldnode, ptr %19, i32 0, i32 6
  %21 = load i32, ptr %20, align 8, !tbaa !29
  %22 = sdiv i32 %18, %21
  %23 = load ptr, ptr %3, align 8, !tbaa !4
  %24 = getelementptr inbounds nuw %struct.formnode, ptr %23, i32 0, i32 3
  store i32 %22, ptr %24, align 8, !tbaa !21
  %25 = load i32, ptr %6, align 4, !tbaa !35
  %26 = load ptr, ptr %5, align 8, !tbaa !17
  %27 = getelementptr inbounds nuw %struct.fieldnode, ptr %26, i32 0, i32 2
  %28 = load i16, ptr %27, align 4, !tbaa !30
  %29 = sext i16 %28 to i32
  %30 = load ptr, ptr %3, align 8, !tbaa !4
  %31 = getelementptr inbounds nuw %struct.formnode, ptr %30, i32 0, i32 3
  %32 = load i32, ptr %31, align 8, !tbaa !21
  %33 = mul nsw i32 %29, %32
  %34 = sub nsw i32 %25, %33
  %35 = load ptr, ptr %3, align 8, !tbaa !4
  %36 = getelementptr inbounds nuw %struct.formnode, ptr %35, i32 0, i32 4
  store i32 %34, ptr %36, align 4, !tbaa !22
  %37 = load ptr, ptr %5, align 8, !tbaa !17
  %38 = getelementptr inbounds nuw %struct.fieldnode, ptr %37, i32 0, i32 5
  %39 = load i32, ptr %38, align 4, !tbaa !27
  %40 = load ptr, ptr %3, align 8, !tbaa !4
  %41 = getelementptr inbounds nuw %struct.formnode, ptr %40, i32 0, i32 3
  %42 = load i32, ptr %41, align 8, !tbaa !21
  %43 = icmp slt i32 %39, %42
  br i1 %43, label %44, label %47

44:                                               ; preds = %2
  %45 = load ptr, ptr %3, align 8, !tbaa !4
  %46 = getelementptr inbounds nuw %struct.formnode, ptr %45, i32 0, i32 3
  store i32 0, ptr %46, align 8, !tbaa !21
  br label %47

47:                                               ; preds = %44, %2
  call void @llvm.lifetime.end.p0(i64 4, ptr %6) #9
  call void @llvm.lifetime.end.p0(i64 8, ptr %5) #9
  ret void
}

; Function Attrs: nounwind uwtable
define internal ptr @Get_Start_Of_Data(ptr noundef %0, i32 noundef %1) #0 {
  %3 = alloca ptr, align 8
  %4 = alloca i32, align 4
  %5 = alloca ptr, align 8
  %6 = alloca ptr, align 8
  store ptr %0, ptr %3, align 8, !tbaa !55
  store i32 %1, ptr %4, align 4, !tbaa !35
  call void @llvm.lifetime.start.p0(i64 8, ptr %5) #9
  %7 = load ptr, ptr %3, align 8, !tbaa !55
  store ptr %7, ptr %5, align 8, !tbaa !55
  call void @llvm.lifetime.start.p0(i64 8, ptr %6) #9
  %8 = load ptr, ptr %3, align 8, !tbaa !55
  %9 = load i32, ptr %4, align 4, !tbaa !35
  %10 = sext i32 %9 to i64
  %11 = getelementptr inbounds i8, ptr %8, i64 %10
  store ptr %11, ptr %6, align 8, !tbaa !55
  br label %12

12:                                               ; preds = %23, %2
  %13 = load ptr, ptr %5, align 8, !tbaa !55
  %14 = load ptr, ptr %6, align 8, !tbaa !55
  %15 = icmp ult ptr %13, %14
  br i1 %15, label %16, label %21

16:                                               ; preds = %12
  %17 = load ptr, ptr %5, align 8, !tbaa !55
  %18 = load i8, ptr %17, align 1, !tbaa !65
  %19 = sext i8 %18 to i32
  %20 = icmp eq i32 %19, 32
  br label %21

21:                                               ; preds = %16, %12
  %22 = phi i1 [ false, %12 ], [ %20, %16 ]
  br i1 %22, label %23, label %26

23:                                               ; preds = %21
  %24 = load ptr, ptr %5, align 8, !tbaa !55
  %25 = getelementptr inbounds nuw i8, ptr %24, i32 1
  store ptr %25, ptr %5, align 8, !tbaa !55
  br label %12, !llvm.loop !115

26:                                               ; preds = %21
  %27 = load ptr, ptr %5, align 8, !tbaa !55
  %28 = load ptr, ptr %6, align 8, !tbaa !55
  %29 = icmp eq ptr %27, %28
  br i1 %29, label %30, label %32

30:                                               ; preds = %26
  %31 = load ptr, ptr %3, align 8, !tbaa !55
  br label %34

32:                                               ; preds = %26
  %33 = load ptr, ptr %5, align 8, !tbaa !55
  br label %34

34:                                               ; preds = %32, %30
  %35 = phi ptr [ %31, %30 ], [ %33, %32 ]
  call void @llvm.lifetime.end.p0(i64 8, ptr %6) #9
  call void @llvm.lifetime.end.p0(i64 8, ptr %5) #9
  ret ptr %35
}

; Function Attrs: nounwind uwtable
define internal i32 @IFN_Beginning_Of_Line(ptr noundef %0) #0 {
  %2 = alloca ptr, align 8
  %3 = alloca ptr, align 8
  store ptr %0, ptr %2, align 8, !tbaa !4
  call void @llvm.lifetime.start.p0(i64 8, ptr %3) #9
  %4 = load ptr, ptr %2, align 8, !tbaa !4
  %5 = getelementptr inbounds nuw %struct.formnode, ptr %4, i32 0, i32 15
  %6 = load ptr, ptr %5, align 8, !tbaa !16
  store ptr %6, ptr %3, align 8, !tbaa !17
  %7 = load ptr, ptr %2, align 8, !tbaa !4
  call void @Synchronize_Buffer(ptr noundef %7)
  %8 = load ptr, ptr %2, align 8, !tbaa !4
  %9 = load ptr, ptr %2, align 8, !tbaa !4
  %10 = getelementptr inbounds nuw %struct.formnode, ptr %9, i32 0, i32 15
  %11 = load ptr, ptr %10, align 8, !tbaa !16
  %12 = getelementptr inbounds nuw %struct.fieldnode, ptr %11, i32 0, i32 23
  %13 = load ptr, ptr %12, align 8, !tbaa !54
  %14 = load ptr, ptr %2, align 8, !tbaa !4
  %15 = getelementptr inbounds nuw %struct.formnode, ptr %14, i32 0, i32 15
  %16 = load ptr, ptr %15, align 8, !tbaa !16
  %17 = getelementptr inbounds nuw %struct.fieldnode, ptr %16, i32 0, i32 5
  %18 = load i32, ptr %17, align 4, !tbaa !27
  %19 = load ptr, ptr %2, align 8, !tbaa !4
  %20 = getelementptr inbounds nuw %struct.formnode, ptr %19, i32 0, i32 15
  %21 = load ptr, ptr %20, align 8, !tbaa !16
  %22 = getelementptr inbounds nuw %struct.fieldnode, ptr %21, i32 0, i32 6
  %23 = load i32, ptr %22, align 8, !tbaa !29
  %24 = mul nsw i32 %18, %23
  %25 = add nsw i32 1, %24
  %26 = mul nsw i32 0, %25
  %27 = sext i32 %26 to i64
  %28 = getelementptr inbounds i8, ptr %13, i64 %27
  %29 = load ptr, ptr %2, align 8, !tbaa !4
  %30 = getelementptr inbounds nuw %struct.formnode, ptr %29, i32 0, i32 3
  %31 = load i32, ptr %30, align 8, !tbaa !21
  %32 = load ptr, ptr %2, align 8, !tbaa !4
  %33 = getelementptr inbounds nuw %struct.formnode, ptr %32, i32 0, i32 15
  %34 = load ptr, ptr %33, align 8, !tbaa !16
  %35 = getelementptr inbounds nuw %struct.fieldnode, ptr %34, i32 0, i32 6
  %36 = load i32, ptr %35, align 8, !tbaa !29
  %37 = mul nsw i32 %31, %36
  %38 = sext i32 %37 to i64
  %39 = getelementptr inbounds i8, ptr %28, i64 %38
  %40 = load ptr, ptr %3, align 8, !tbaa !17
  %41 = getelementptr inbounds nuw %struct.fieldnode, ptr %40, i32 0, i32 6
  %42 = load i32, ptr %41, align 8, !tbaa !29
  %43 = call ptr @Get_Start_Of_Data(ptr noundef %39, i32 noundef %42)
  call void @Adjust_Cursor_Position(ptr noundef %8, ptr noundef %43)
  call void @llvm.lifetime.end.p0(i64 8, ptr %3) #9
  ret i32 0
}