; Function Attrs: nounwind uwtable
define internal noundef i32 @IFN_Beginning_Of_Line(ptr noundef captures(none) %0) #0 {
  %2 = getelementptr inbounds nuw i8, ptr %0, i64 72
  %3 = load ptr, ptr %2, align 8, !tbaa !14
  tail call fastcc void @Synchronize_Buffer(ptr noundef %0)
  %4 = load ptr, ptr %2, align 8, !tbaa !14
  %5 = getelementptr inbounds nuw i8, ptr %4, i64 104
  %6 = load ptr, ptr %5, align 8, !tbaa !52
  %7 = getelementptr inbounds nuw i8, ptr %4, i64 16
  %8 = load i32, ptr %7, align 8, !tbaa !26
  %9 = getelementptr inbounds nuw i8, ptr %0, i64 8
  %10 = load i32, ptr %9, align 8, !tbaa !17
  %11 = mul nsw i32 %10, %8
  %12 = sext i32 %11 to i64
  %13 = getelementptr inbounds i8, ptr %6, i64 %12
  %14 = getelementptr inbounds nuw i8, ptr %3, i64 16
  %15 = load i32, ptr %14, align 8, !tbaa !26
  %16 = sext i32 %15 to i64
  %17 = getelementptr inbounds i8, ptr %13, i64 %16
  %18 = icmp sgt i32 %15, 0
  br i1 %18, label %.lr.ph.i, label %Get_Start_Of_Data.exit

.lr.ph.i:                                         ; preds = %1, %21
  %.010.i = phi ptr [ %22, %21 ], [ %13, %1 ]
  %19 = load i8, ptr %.010.i, align 1, !tbaa !54
  %20 = icmp eq i8 %19, 32
  br i1 %20, label %21, label %Get_Start_Of_Data.exit

21:                                               ; preds = %.lr.ph.i
  %22 = getelementptr inbounds nuw i8, ptr %.010.i, i64 1
  %23 = icmp ult ptr %22, %17
  br i1 %23, label %.lr.ph.i, label %Get_Start_Of_Data.exit, !llvm.loop !56

Get_Start_Of_Data.exit:                           ; preds = %.lr.ph.i, %21, %1
  %.0.lcssa.i = phi ptr [ %13, %1 ], [ %.010.i, %.lr.ph.i ], [ %22, %21 ]
  %24 = icmp eq ptr %.0.lcssa.i, %17
  %25 = select i1 %24, ptr %13, ptr %.0.lcssa.i
  %26 = ptrtoint ptr %25 to i64
  %27 = ptrtoint ptr %6 to i64
  %28 = sub i64 %26, %27
  %29 = trunc i64 %28 to i32
  %30 = sdiv i32 %29, %8
  store i32 %30, ptr %9, align 8, !tbaa !17
  %31 = getelementptr inbounds nuw i8, ptr %4, i64 4
  %32 = load i16, ptr %31, align 4, !tbaa !27
  %33 = sext i16 %32 to i32
  %34 = mul nsw i32 %30, %33
  %35 = sub nsw i32 %29, %34
  %36 = getelementptr inbounds nuw i8, ptr %0, i64 12
  store i32 %35, ptr %36, align 4, !tbaa !18
  %37 = getelementptr inbounds nuw i8, ptr %4, i64 12
  %38 = load i32, ptr %37, align 4, !tbaa !24
  %39 = icmp slt i32 %38, %30
  br i1 %39, label %40, label %Adjust_Cursor_Position.exit

40:                                               ; preds = %Get_Start_Of_Data.exit
  store i32 0, ptr %9, align 8, !tbaa !17
  br label %Adjust_Cursor_Position.exit

Adjust_Cursor_Position.exit:                      ; preds = %Get_Start_Of_Data.exit, %40
  ret i32 0
}